Certificate:
    Data:
        Version: 1 (0x0)
        Serial Number: 4096 (0x1000)
    Signature Algorithm: sha256WithRSAEncryption
        Issuer: C=US, CN=My CA
        Validity
            Not Before: May 23 16:00:23 2017 GMT
            Not After : Apr 29 16:00:23 2117 GMT
        Subject: CN=localhost, C=US
        Subject Public Key Info:
            Public Key Algorithm: rsaEncryption
                Public-Key: (2048 bit)
                Modulus:
                    00:c9:d4:43:60:50:fc:d6:0f:38:4d:5d:5e:aa:7c:
                    c0:5e:a9:ec:d9:93:78:d3:93:72:28:41:f5:08:a5:
                    ea:ac:67:07:d7:1f:f7:7d:74:69:7e:46:89:20:4b:
                    7a:2d:9b:02:08:e7:6f:0f:1d:0c:0f:c7:60:69:19:
                    4b:df:7e:ca:75:94:0b:49:71:e3:6d:f2:e8:79:fd:
                    ed:0a:94:67:55:f3:ca:6b:61:ba:58:b7:2e:dd:7b:
                    ca:b9:02:9f:24:36:ac:26:8f:04:8f:81:c8:35:10:
                    f4:aa:33:b2:24:16:f8:f7:1e:ea:f7:16:fe:fa:34:
                    c3:dd:bb:2c:ba:7a:df:4d:e2:da:1e:e5:d2:28:44:
                    6e:c8:96:e0:fd:09:0c:14:0c:31:dc:e0:ca:c1:a7:
                    9b:bf:16:8c:f7:36:3f:1b:2e:dd:90:eb:45:78:51:
                    bf:59:22:1e:c6:8c:0a:69:88:e5:03:5e:73:b7:fc:
                    93:7f:1b:46:1b:97:68:c5:c0:8b:35:1f:bb:1e:67:
                    7f:55:b7:3b:55:3f:ea:f2:ca:db:cc:52:cd:16:89:
                    db:15:47:bd:f2:cd:6c:7a:d7:b4:1a:ac:c8:15:6c:
                    6a:fb:77:c4:e9:f2:30:e0:14:24:66:65:6f:2a:e5:
                    2d:cc:f6:81:ae:57:c8:d1:9b:38:90:dc:60:93:02:
                    5e:cb
                Exponent: 65537 (0x10001)
    Signature Algorithm: sha256WithRSAEncryption
         1c:7c:39:e8:3d:49:b2:09:1e:68:5a:2f:74:18:f4:63:b5:8c:
         f6:e6:a1:e3:4d:95:90:99:ef:32:5c:34:40:e8:55:13:0e:e0:
         1c:be:cd:ab:3f:64:38:99:5e:2b:c1:81:53:a0:18:a8:f6:ee:
         6a:33:73:6c:9a:73:9d:86:08:5d:c7:11:38:46:4c:cd:a0:47:
         37:8f:fe:a6:50:a9:02:21:99:42:86:5e:47:fe:65:56:60:1d:
         16:53:86:bd:e4:63:c5:69:cf:fa:30:51:ab:a1:c3:50:53:cc:
         66:1c:4c:ff:3f:2a:39:4d:a2:8f:9d:d1:a7:8b:22:e4:78:69:
         24:06:83:4d:cc:0a:c0:87:69:9b:bc:80:a9:d2:b7:a5:23:84:
         7e:a2:32:26:7c:78:0e:bd:db:cd:3b:69:18:33:b8:44:ef:96:
         b4:99:86:ee:06:bd:51:1c:c7:a1:a4:0c:c4:4c:51:a0:df:ac:
         14:07:88:8e:d7:39:45:fe:52:e0:a3:4c:db:5d:7a:ab:4d:e4:
         ca:06:e8:bd:74:6f:46:e7:93:4a:4f:1b:67:e7:a5:9f:ef:9c:
         02:49:d1:f2:d5:e9:53:ee:09:21:ac:08:c8:15:f7:af:35:b9:
         4f:11:0f:43:ae:46:8e:fd:5b:8d:a3:4e:a7:2c:b7:25:ed:e4:
         e5:94:1d:e3
-----BEGIN CERTIFICATE-----
MIICtTCCAZ0CAhAAMA0GCSqGSIb3DQEBCwUAMB0xCzAJBgNVBAYTAlVTMQ4wDAYD
VQQDEwVNeSBDQTAgFw0xNzA1MjMxNjAwMjNaGA8yMTE3MDQyOTE2MDAyM1owITES
MBAGA1UEAxMJbG9jYWxob3N0MQswCQYDVQQGEwJVUzCCASIwDQYJKoZIhvcNAQEB
BQADggEPADCCAQoCggEBAMnUQ2BQ/NYPOE1dXqp8wF6p7NmTeNOTcihB9Qil6qxn
B9cf9310aX5GiSBLei2bAgjnbw8dDA/HYGkZS99+ynWUC0lx423y6Hn97QqUZ1Xz
ymthuli3Lt17yrkCnyQ2rCaPBI+ByDUQ9KozsiQW+Pce6vcW/vo0w927LLp6303i
2h7l0ihEbsiW4P0JDBQMMdzgysGnm78WjPc2Pxsu3ZDrRXhRv1kiHsaMCmmI5QNe
c7f8k38bRhuXaMXAizUfux5nf1W3O1U/6vLK28xSzRaJ2xVHvfLNbHrXtBqsyBVs
avt3xOnyMOAUJGZlbyrlLcz2ga5XyNGbOJDcYJMCXssCAwEAATANBgkqhkiG9w0B
AQsFAAOCAQEAHHw56D1JsgkeaFovdBj0Y7WM9uah402VkJnvMlw0QOhVEw7gHL7N
qz9kOJleK8GBU6AYqPbuajNzbJpznYYIXccROEZMzaBHN4/+plCpAiGZQoZeR/5l
VmAdFlOGveRjxWnP+jBRq6HDUFPMZhxM/z8qOU2ij53Rp4si5HhpJAaDTcwKwIdp
m7yAqdK3pSOEfqIyJnx4Dr3bzTtpGDO4RO+WtJmG7ga9URzHoaQMxExRoN+sFAeI
jtc5Rf5S4KNM2116q03kygbovXRvRueTSk8bZ+eln++cAknR8tXpU+4JIawIyBX3
rzW5TxEPQ65Gjv1bjaNOpyy3Je3k5ZQd4w==
-----END CERTIFICATE-----
